target datalayout = "e-m:e-p270:32:32-p271:32:32-p272:64:64-i64:64-i128:128-f80:128-n8:16:32:64-S128"
target triple = "x86_64-pc-linux-gnu"

%struct.ossl_cmp_msg_st = type { ptr, ptr, ptr, ptr, ptr, ptr }
%struct.asn1_string_st = type { i32, i32, ptr, i64 }

@.str = private unnamed_addr constant [32 x i8] c"../openssl/crypto/cmp/cmp_vfy.c\00", align 1
@__func__.verify_PBMAC = private unnamed_addr constant [13 x i8] c"verify_PBMAC\00", align 1

; Function Attrs: nounwind uwtable
define internal i32 @verify_PBMAC(ptr noundef %0, ptr noundef %1) #0 {
  %3 = alloca i32, align 4
  %4 = alloca ptr, align 8
  %5 = alloca ptr, align 8
  %6 = alloca ptr, align 8
  %7 = alloca i32, align 4
  %8 = alloca i32, align 4
  store ptr %0, ptr %4, align 8, !tbaa !3
  store ptr %1, ptr %5, align 8, !tbaa !36
  call void @llvm.lifetime.start.p0(i64 8, ptr %6) #5
  store ptr null, ptr %6, align 8, !tbaa !58
  call void @llvm.lifetime.start.p0(i64 4, ptr %7) #5
  store i32 0, ptr %7, align 4, !tbaa !12
  %9 = load ptr, ptr %4, align 8, !tbaa !3
  %10 = load ptr, ptr %5, align 8, !tbaa !36
  %11 = call ptr @ossl_cmp_calc_protection(ptr noundef %9, ptr noundef %10)
  store ptr %11, ptr %6, align 8, !tbaa !58
  %12 = icmp eq ptr %11, null
  br i1 %12, label %13, label %14

13:                                               ; preds = %2
  store i32 0, ptr %3, align 4
  store i32 1, ptr %8, align 4
  br label %70

14:                                               ; preds = %2
  %15 = load ptr, ptr %5, align 8, !tbaa !36
  %16 = getelementptr inbounds nuw %struct.ossl_cmp_msg_st, ptr %15, i32 0, i32 2
  %17 = load ptr, ptr %16, align 8, !tbaa !47
  %18 = icmp ne ptr %17, null
  br i1 %18, label %19, label %61

19:                                               ; preds = %14
  %20 = load ptr, ptr %5, align 8, !tbaa !36
  %21 = getelementptr inbounds nuw %struct.ossl_cmp_msg_st, ptr %20, i32 0, i32 2
  %22 = load ptr, ptr %21, align 8, !tbaa !47
  %23 = getelementptr inbounds nuw %struct.asn1_string_st, ptr %22, i32 0, i32 0
  %24 = load i32, ptr %23, align 8, !tbaa !59
  %25 = icmp sge i32 %24, 0
  br i1 %25, label %26, label %61

26:                                               ; preds = %19
  %27 = load ptr, ptr %5, align 8, !tbaa !36
  %28 = getelementptr inbounds nuw %struct.ossl_cmp_msg_st, ptr %27, i32 0, i32 2
  %29 = load ptr, ptr %28, align 8, !tbaa !47
  %30 = getelementptr inbounds nuw %struct.asn1_string_st, ptr %29, i32 0, i32 1
  %31 = load i32, ptr %30, align 4, !tbaa !60
  %32 = load ptr, ptr %6, align 8, !tbaa !58
  %33 = getelementptr inbounds nuw %struct.asn1_string_st, ptr %32, i32 0, i32 1
  %34 = load i32, ptr %33, align 4, !tbaa !60
  %35 = icmp eq i32 %31, %34
  br i1 %35, label %36, label %61

36:                                               ; preds = %26
  %37 = load ptr, ptr %5, align 8, !tbaa !36
  %38 = getelementptr inbounds nuw %struct.ossl_cmp_msg_st, ptr %37, i32 0, i32 2
  %39 = load ptr, ptr %38, align 8, !tbaa !47
  %40 = getelementptr inbounds nuw %struct.asn1_string_st, ptr %39, i32 0, i32 0
  %41 = load i32, ptr %40, align 8, !tbaa !59
  %42 = load ptr, ptr %6, align 8, !tbaa !58
  %43 = getelementptr inbounds nuw %struct.asn1_string_st, ptr %42, i32 0, i32 0
  %44 = load i32, ptr %43, align 8, !tbaa !59
  %45 = icmp eq i32 %41, %44
  br i1 %45, label %46, label %61

46:                                               ; preds = %36
  %47 = load ptr, ptr %5, align 8, !tbaa !36
  %48 = getelementptr inbounds nuw %struct.ossl_cmp_msg_st, ptr %47, i32 0, i32 2
  %49 = load ptr, ptr %48, align 8, !tbaa !47
  %50 = getelementptr inbounds nuw %struct.asn1_string_st, ptr %49, i32 0, i32 2
  %51 = load ptr, ptr %50, align 8, !tbaa !48
  %52 = load ptr, ptr %6, align 8, !tbaa !58
  %53 = getelementptr inbounds nuw %struct.asn1_string_st, ptr %52, i32 0, i32 2
  %54 = load ptr, ptr %53, align 8, !tbaa !48
  %55 = load ptr, ptr %6, align 8, !tbaa !58
  %56 = getelementptr inbounds nuw %struct.asn1_string_st, ptr %55, i32 0, i32 0
  %57 = load i32, ptr %56, align 8, !tbaa !59
  %58 = sext i32 %57 to i64
  %59 = call i32 @CRYPTO_memcmp(ptr noundef %51, ptr noundef %54, i64 noundef %58)
  %60 = icmp eq i32 %59, 0
  br label %61

61:                                               ; preds = %46, %36, %26, %19, %14
  %62 = phi i1 [ false, %36 ], [ false, %26 ], [ false, %19 ], [ false, %14 ], [ %60, %46 ]
  %63 = zext i1 %62 to i32
  store i32 %63, ptr %7, align 4, !tbaa !12
  %64 = load ptr, ptr %6, align 8, !tbaa !58
  call void @ASN1_BIT_STRING_free(ptr noundef %64)
  %65 = load i32, ptr %7, align 4, !tbaa !12
  %66 = icmp ne i32 %65, 0
  br i1 %66, label %68, label %67

67:                                               ; preds = %61
  call void @ERR_new()
  call void @ERR_set_debug(ptr noundef @.str, i32 noundef 94, ptr noundef @__func__.verify_PBMAC)
  call void (i32, i32, ptr, ...) @ERR_set_error(i32 noundef 58, i32 noundef 155, ptr noundef null)
  br label %68

68:                                               ; preds = %67, %61
  %69 = load i32, ptr %7, align 4, !tbaa !12
  store i32 %69, ptr %3, align 4
  store i32 1, ptr %8, align 4
  br label %70

70:                                               ; preds = %68, %13
  call void @llvm.lifetime.end.p0(i64 4, ptr %7) #5
  call void @llvm.lifetime.end.p0(i64 8, ptr %6) #5
  %71 = load i32, ptr %3, align 4
  ret i32 %71
}