; Function Attrs: nounwind uwtable
define internal fastcc range(i32 0, 2) i32 @verify_PBMAC(ptr noundef nonnull %0, ptr noundef nonnull %1) unnamed_addr #0 {
  %3 = tail call ptr @ossl_cmp_calc_protection(ptr noundef nonnull %0, ptr noundef nonnull %1) #3
  %4 = icmp eq ptr %3, null
  br i1 %4, label %29, label %5

5:                                                ; preds = %2
  %6 = getelementptr inbounds nuw i8, ptr %1, i64 16
  %7 = load ptr, ptr %6, align 8, !tbaa !37
  %.not = icmp eq ptr %7, null
  br i1 %.not, label %.thread, label %8

8:                                                ; preds = %5
  %9 = load i32, ptr %7, align 8, !tbaa !47
  %10 = icmp sgt i32 %9, -1
  br i1 %10, label %11, label %.thread

11:                                               ; preds = %8
  %12 = getelementptr inbounds nuw i8, ptr %7, i64 4
  %13 = load i32, ptr %12, align 4, !tbaa !48
  %14 = getelementptr inbounds nuw i8, ptr %3, i64 4
  %15 = load i32, ptr %14, align 4, !tbaa !48
  %16 = icmp eq i32 %13, %15
  br i1 %16, label %17, label %.thread

17:                                               ; preds = %11
  %18 = load i32, ptr %3, align 8, !tbaa !47
  %19 = icmp eq i32 %9, %18
  br i1 %19, label %20, label %.thread

.thread:                                          ; preds = %17, %11, %8, %5
  tail call void @ASN1_BIT_STRING_free(ptr noundef nonnull %3) #3
  br label %28

20:                                               ; preds = %17
  %21 = getelementptr inbounds nuw i8, ptr %7, i64 8
  %22 = load ptr, ptr %21, align 8, !tbaa !38
  %23 = getelementptr inbounds nuw i8, ptr %3, i64 8
  %24 = load ptr, ptr %23, align 8, !tbaa !38
  %25 = zext nneg i32 %9 to i64
  %26 = tail call i32 @CRYPTO_memcmp(ptr noundef %22, ptr noundef %24, i64 noundef %25) #3
  %27 = icmp eq i32 %26, 0
  tail call void @ASN1_BIT_STRING_free(ptr noundef nonnull %3) #3
  br i1 %27, label %29, label %28

28:                                               ; preds = %.thread, %20
  tail call void @ERR_new() #3
  tail call void @ERR_set_debug(ptr noundef nonnull @.str, i32 noundef 94, ptr noundef nonnull @__func__.verify_PBMAC) #3
  tail call void (i32, i32, ptr, ...) @ERR_set_error(i32 noundef 58, i32 noundef 155, ptr noundef null) #3
  br label %29

29:                                               ; preds = %20, %28, %2
  %.0 = phi i32 [ 0, %2 ], [ 0, %28 ], [ 1, %20 ]
  ret i32 %.0
}